target datalayout = "e-m:e-p270:32:32-p271:32:32-p272:64:64-i64:64-i128:128-f80:128-n8:16:32:64-S128"
target triple = "x86_64-pc-linux-gnu"

%struct.MolecularTopologyAtomIndices = type { i32, i32, i32, i32 }
%"class.gmx::ArrayRef" = type { %"struct.gmx::ArrayRefIter", %"struct.gmx::ArrayRefIter" }
%"struct.gmx::ArrayRefIter" = type { ptr }
%struct.MolblockIndices = type { i32, i32, i32, i32 }

; Function Attrs: mustprogress nounwind uwtable
define linkonce_odr noundef nonnull align 4 dereferenceable(16) ptr @_ZNK3gmx12ArrayRefIterIK15MolblockIndicesEdeEv(ptr noundef nonnull align 8 dereferenceable(8) %0) #3 comdat align 2 {
  %2 = alloca ptr, align 8
  store ptr %0, ptr %2, align 8, !tbaa !41
  %3 = load ptr, ptr %2, align 8
  %4 = getelementptr inbounds nuw %"struct.gmx::ArrayRefIter", ptr %3, i32 0, i32 0
  %5 = load ptr, ptr %4, align 8, !tbaa !43
  ret ptr %5
}

; Function Attrs: mustprogress nounwind uwtable
define linkonce_odr noundef nonnull align 8 dereferenceable(8) ptr @_ZN3gmx12ArrayRefIterIK15MolblockIndicesEpLEl(ptr noundef nonnull align 8 dereferenceable(8) %0, i64 noundef %1) #3 comdat align 2 {
  %3 = alloca ptr, align 8
  %4 = alloca i64, align 8
  store ptr %0, ptr %3, align 8, !tbaa !41
  store i64 %1, ptr %4, align 8, !tbaa !39
  %5 = load ptr, ptr %3, align 8
  %6 = load i64, ptr %4, align 8, !tbaa !39
  %7 = getelementptr inbounds nuw %"struct.gmx::ArrayRefIter", ptr %5, i32 0, i32 0
  %8 = load ptr, ptr %7, align 8, !tbaa !43
  %9 = getelementptr inbounds %struct.MolblockIndices, ptr %8, i64 %6
  store ptr %9, ptr %7, align 8, !tbaa !43
  ret ptr %5
}

; Function Attrs: mustprogress nounwind uwtable
define linkonce_odr noundef nonnull align 8 dereferenceable(8) ptr @_ZNK3gmx5boost14stl_interfaces2v118iterator_interfaceINS_12ArrayRefIterIK15MolblockIndicesEESt26random_access_iterator_tagS6_RS6_PS6_lvE7derivedEv(ptr noundef nonnull align 1 dereferenceable(1) %0) #3 comdat align 2 {
  %2 = alloca ptr, align 8
  store ptr %0, ptr %2, align 8, !tbaa !45
  %3 = load ptr, ptr %2, align 8
  ret ptr %3
}

; Function Attrs: mustprogress nounwind uwtable
define linkonce_odr noundef nonnull align 4 dereferenceable(16) ptr @_ZNK3gmx5boost14stl_interfaces2v118iterator_interfaceINS_12ArrayRefIterIK15MolblockIndicesEESt26random_access_iterator_tagS6_RS6_PS6_lvEixIS7_EEDTcmpLclsr3stdE7declvalIRT_EEfp_declsr3stdE7declvalISE_EEEl(ptr noundef nonnull align 1 dereferenceable(1) %0, i64 noundef %1) #3 comdat align 2 {
  %3 = alloca ptr, align 8
  %4 = alloca i64, align 8
  %5 = alloca %"struct.gmx::ArrayRefIter", align 8
  store ptr %0, ptr %3, align 8, !tbaa !45
  store i64 %1, ptr %4, align 8, !tbaa !39
  %6 = load ptr, ptr %3, align 8
  call void @llvm.lifetime.start.p0(i64 8, ptr %5) #14
  %7 = call noundef nonnull align 8 dereferenceable(8) ptr @_ZNK3gmx5boost14stl_interfaces2v118iterator_interfaceINS_12ArrayRefIterIK15MolblockIndicesEESt26random_access_iterator_tagS6_RS6_PS6_lvE7derivedEv(ptr noundef nonnull align 1 dereferenceable(1) %6) #14
  call void @llvm.memcpy.p0.p0.i64(ptr align 8 %5, ptr align 8 %7, i64 8, i1 false)
  %8 = load i64, ptr %4, align 8, !tbaa !39
  %9 = call noundef nonnull align 8 dereferenceable(8) ptr @_ZN3gmx12ArrayRefIterIK15MolblockIndicesEpLEl(ptr noundef nonnull align 8 dereferenceable(8) %5, i64 noundef %8) #14
  %10 = call noundef nonnull align 4 dereferenceable(16) ptr @_ZNK3gmx12ArrayRefIterIK15MolblockIndicesEdeEv(ptr noundef nonnull align 8 dereferenceable(8) %5) #14
  call void @llvm.lifetime.end.p0(i64 8, ptr %5) #14
  ret ptr %10
}

; Function Attrs: mustprogress nounwind uwtable
define linkonce_odr noundef i64 @_ZNK3gmx12ArrayRefIterIK15MolblockIndicesEmiES3_(ptr noundef nonnull align 8 dereferenceable(8) %0, ptr %1) #3 comdat align 2 {
  %3 = alloca %"struct.gmx::ArrayRefIter", align 8
  %4 = alloca ptr, align 8
  %5 = getelementptr inbounds nuw %"struct.gmx::ArrayRefIter", ptr %3, i32 0, i32 0
  store ptr %1, ptr %5, align 8
  store ptr %0, ptr %4, align 8, !tbaa !41
  %6 = load ptr, ptr %4, align 8
  %7 = getelementptr inbounds nuw %"struct.gmx::ArrayRefIter", ptr %6, i32 0, i32 0
  %8 = load ptr, ptr %7, align 8, !tbaa !43
  %9 = getelementptr inbounds nuw %"struct.gmx::ArrayRefIter", ptr %3, i32 0, i32 0
  %10 = load ptr, ptr %9, align 8, !tbaa !43
  %11 = ptrtoint ptr %8 to i64
  %12 = ptrtoint ptr %10 to i64
  %13 = sub i64 %11, %12
  %14 = sdiv exact i64 %13, 16
  ret i64 %14
}

; Function Attrs: mustprogress nounwind uwtable
define linkonce_odr noundef nonnull align 4 dereferenceable(16) ptr @_ZNK3gmx8ArrayRefIK15MolblockIndicesEixEm(ptr noundef nonnull align 8 dereferenceable(16) %0, i64 noundef %1) #3 comdat align 2 {
  %3 = alloca ptr, align 8
  %4 = alloca i64, align 8
  store ptr %0, ptr %3, align 8, !tbaa !37
  store i64 %1, ptr %4, align 8, !tbaa !39
  %5 = load ptr, ptr %3, align 8
  %6 = getelementptr inbounds nuw %"class.gmx::ArrayRef", ptr %5, i32 0, i32 0
  %7 = load i64, ptr %4, align 8, !tbaa !39
  %8 = call noundef nonnull align 4 dereferenceable(16) ptr @_ZNK3gmx5boost14stl_interfaces2v118iterator_interfaceINS_12ArrayRefIterIK15MolblockIndicesEESt26random_access_iterator_tagS6_RS6_PS6_lvEixIS7_EEDTcmpLclsr3stdE7declvalIRT_EEfp_declsr3stdE7declvalISE_EEEl(ptr noundef nonnull align 1 dereferenceable(1) %6, i64 noundef %7) #14
  ret ptr %8
}

; Function Attrs: mustprogress nounwind uwtable
define linkonce_odr noundef i64 @_ZNK3gmx8ArrayRefIK15MolblockIndicesE4sizeEv(ptr noundef nonnull align 8 dereferenceable(16) %0) #3 comdat align 2 {
  %2 = alloca ptr, align 8
  %3 = alloca %"struct.gmx::ArrayRefIter", align 8
  store ptr %0, ptr %2, align 8, !tbaa !37
  %4 = load ptr, ptr %2, align 8
  %5 = getelementptr inbounds nuw %"class.gmx::ArrayRef", ptr %4, i32 0, i32 1
  %6 = getelementptr inbounds nuw %"class.gmx::ArrayRef", ptr %4, i32 0, i32 0
  call void @llvm.memcpy.p0.p0.i64(ptr align 8 %3, ptr align 8 %6, i64 8, i1 false)
  %7 = getelementptr inbounds nuw %"struct.gmx::ArrayRefIter", ptr %3, i32 0, i32 0
  %8 = load ptr, ptr %7, align 8
  %9 = call noundef i64 @_ZNK3gmx12ArrayRefIterIK15MolblockIndicesEmiES3_(ptr noundef nonnull align 8 dereferenceable(8) %5, ptr %8) #14
  ret i64 %9
}

; Function Attrs: mustprogress uwtable
define { i64, i64 } @_Z31globalAtomIndexToMoltypeIndicesN3gmx8ArrayRefIK15MolblockIndicesEEi(ptr %0, ptr %1, i32 noundef %2) #0 {
  %4 = alloca %struct.MolecularTopologyAtomIndices, align 4
  %5 = alloca %"class.gmx::ArrayRef", align 8
  %6 = alloca i32, align 4
  %7 = alloca i32, align 4
  %8 = alloca i32, align 4
  %9 = alloca i32, align 4
  %10 = alloca ptr, align 8
  %11 = getelementptr inbounds nuw { ptr, ptr }, ptr %5, i32 0, i32 0
  store ptr %0, ptr %11, align 8
  %12 = getelementptr inbounds nuw { ptr, ptr }, ptr %5, i32 0, i32 1
  store ptr %1, ptr %12, align 8
  store i32 %2, ptr %6, align 4, !tbaa !4
  call void @llvm.lifetime.start.p0(i64 4, ptr %7) #14
  store i32 0, ptr %7, align 4, !tbaa !4
  call void @llvm.lifetime.start.p0(i64 4, ptr %8) #14
  %13 = call noundef i64 @_ZNK3gmx8ArrayRefIK15MolblockIndicesE4sizeEv(ptr noundef nonnull align 8 dereferenceable(16) %5)
  %14 = trunc i64 %13 to i32
  store i32 %14, ptr %8, align 4, !tbaa !4
  call void @llvm.lifetime.start.p0(i64 4, ptr %9) #14
  store i32 0, ptr %9, align 4, !tbaa !4
  br label %15

15:                                               ; preds = %43, %3
  br label %16

16:                                               ; preds = %15
  %17 = load i32, ptr %7, align 4, !tbaa !4
  %18 = load i32, ptr %8, align 4, !tbaa !4
  %19 = add nsw i32 %17, %18
  %20 = sdiv i32 %19, 2
  store i32 %20, ptr %9, align 4, !tbaa !4
  %21 = load i32, ptr %6, align 4, !tbaa !4
  %22 = load i32, ptr %9, align 4, !tbaa !4
  %23 = sext i32 %22 to i64
  %24 = call noundef nonnull align 4 dereferenceable(16) ptr @_ZNK3gmx8ArrayRefIK15MolblockIndicesEixEm(ptr noundef nonnull align 8 dereferenceable(16) %5, i64 noundef %23)
  %25 = getelementptr inbounds nuw %struct.MolblockIndices, ptr %24, i32 0, i32 1
  %26 = load i32, ptr %25, align 4, !tbaa !23
  %27 = icmp sge i32 %21, %26
  br i1 %27, label %28, label %31

28:                                               ; preds = %16
  %29 = load i32, ptr %9, align 4, !tbaa !4
  %30 = add nsw i32 %29, 1
  store i32 %30, ptr %7, align 4, !tbaa !4
  br label %43

31:                                               ; preds = %16
  %32 = load i32, ptr %6, align 4, !tbaa !4
  %33 = load i32, ptr %9, align 4, !tbaa !4
  %34 = sext i32 %33 to i64
  %35 = call noundef nonnull align 4 dereferenceable(16) ptr @_ZNK3gmx8ArrayRefIK15MolblockIndicesEixEm(ptr noundef nonnull align 8 dereferenceable(16) %5, i64 noundef %34)
  %36 = getelementptr inbounds nuw %struct.MolblockIndices, ptr %35, i32 0, i32 0
  %37 = load i32, ptr %36, align 4, !tbaa !25
  %38 = icmp slt i32 %32, %37
  br i1 %38, label %39, label %41

39:                                               ; preds = %31
  %40 = load i32, ptr %9, align 4, !tbaa !4
  store i32 %40, ptr %8, align 4, !tbaa !4
  br label %42

41:                                               ; preds = %31
  br label %44

42:                                               ; preds = %39
  br label %43

43:                                               ; preds = %42, %28
  br label %15, !llvm.loop !26

44:                                               ; preds = %41
  call void @llvm.lifetime.start.p0(i64 8, ptr %10) #14
  %45 = load i32, ptr %9, align 4, !tbaa !4
  %46 = sext i32 %45 to i64
  %47 = call noundef nonnull align 4 dereferenceable(16) ptr @_ZNK3gmx8ArrayRefIK15MolblockIndicesEixEm(ptr noundef nonnull align 8 dereferenceable(16) %5, i64 noundef %46)
  store ptr %47, ptr %10, align 8, !tbaa !28
  %48 = load i32, ptr %9, align 4, !tbaa !4
  %49 = getelementptr inbounds nuw %struct.MolecularTopologyAtomIndices, ptr %4, i32 0, i32 0
  store i32 %48, ptr %49, align 4, !tbaa !30
  %50 = load ptr, ptr %10, align 8, !tbaa !28
  %51 = getelementptr inbounds nuw %struct.MolblockIndices, ptr %50, i32 0, i32 3
  %52 = load i32, ptr %51, align 4, !tbaa !32
  %53 = getelementptr inbounds nuw %struct.MolecularTopologyAtomIndices, ptr %4, i32 0, i32 1
  store i32 %52, ptr %53, align 4, !tbaa !33
  %54 = load i32, ptr %6, align 4, !tbaa !4
  %55 = load ptr, ptr %10, align 8, !tbaa !28
  %56 = getelementptr inbounds nuw %struct.MolblockIndices, ptr %55, i32 0, i32 0
  %57 = load i32, ptr %56, align 4, !tbaa !25
  %58 = sub nsw i32 %54, %57
  %59 = load ptr, ptr %10, align 8, !tbaa !28
  %60 = getelementptr inbounds nuw %struct.MolblockIndices, ptr %59, i32 0, i32 2
  %61 = load i32, ptr %60, align 4, !tbaa !34
  %62 = sdiv i32 %58, %61
  %63 = getelementptr inbounds nuw %struct.MolecularTopologyAtomIndices, ptr %4, i32 0, i32 2
  store i32 %62, ptr %63, align 4, !tbaa !35
  %64 = load i32, ptr %6, align 4, !tbaa !4
  %65 = load ptr, ptr %10, align 8, !tbaa !28
  %66 = getelementptr inbounds nuw %struct.MolblockIndices, ptr %65, i32 0, i32 0
  %67 = load i32, ptr %66, align 4, !tbaa !25
  %68 = sub nsw i32 %64, %67
  %69 = getelementptr inbounds nuw %struct.MolecularTopologyAtomIndices, ptr %4, i32 0, i32 2
  %70 = load i32, ptr %69, align 4, !tbaa !35
  %71 = load ptr, ptr %10, align 8, !tbaa !28
  %72 = getelementptr inbounds nuw %struct.MolblockIndices, ptr %71, i32 0, i32 2
  %73 = load i32, ptr %72, align 4, !tbaa !34
  %74 = mul nsw i32 %70, %73
  %75 = sub nsw i32 %68, %74
  %76 = getelementptr inbounds nuw %struct.MolecularTopologyAtomIndices, ptr %4, i32 0, i32 3
  store i32 %75, ptr %76, align 4, !tbaa !36
  call void @llvm.lifetime.end.p0(i64 8, ptr %10) #14
  call void @llvm.lifetime.end.p0(i64 4, ptr %9) #14
  call void @llvm.lifetime.end.p0(i64 4, ptr %8) #14
  call void @llvm.lifetime.end.p0(i64 4, ptr %7) #14
  %77 = load { i64, i64 }, ptr %4, align 4
  ret { i64, i64 } %77
}