; Function Attrs: mustprogress nofree norecurse nosync nounwind willreturn memory(argmem: read) uwtable
define { i64, i64 } @_Z31globalAtomIndexToMoltypeIndicesN3gmx8ArrayRefIK15MolblockIndicesEEi(ptr %0, ptr %1, i32 noundef %2) local_unnamed_addr #3 {
  %4 = ptrtoint ptr %1 to i64
  %5 = ptrtoint ptr %0 to i64
  %6 = sub i64 %4, %5
  %7 = lshr exact i64 %6, 4
  %8 = trunc i64 %7 to i32
  br label %.outer

.outer:                                           ; preds = %18, %3
  %.016.ph = phi i32 [ %11, %18 ], [ %8, %3 ]
  %.0.ph = phi i32 [ %.0, %18 ], [ 0, %3 ]
  br label %9

9:                                                ; preds = %.outer, %16
  %.0 = phi i32 [ %17, %16 ], [ %.0.ph, %.outer ]
  %10 = add nsw i32 %.0, %.016.ph
  %11 = sdiv i32 %10, 2
  %12 = sext i32 %11 to i64
  %13 = getelementptr inbounds %struct.MolblockIndices, ptr %0, i64 %12
  %14 = getelementptr inbounds nuw i8, ptr %13, i64 4
  %15 = load i32, ptr %14, align 4, !tbaa !20
  %.not = icmp slt i32 %2, %15
  br i1 %.not, label %18, label %16

16:                                               ; preds = %9
  %17 = add nsw i32 %11, 1
  br label %9, !llvm.loop !22

18:                                               ; preds = %9
  %19 = load i32, ptr %13, align 4, !tbaa !24
  %20 = icmp slt i32 %2, %19
  br i1 %20, label %.outer, label %21, !llvm.loop !22

21:                                               ; preds = %18
  %22 = getelementptr inbounds nuw i8, ptr %13, i64 12
  %23 = load i32, ptr %22, align 4, !tbaa !25
  %24 = sub nsw i32 %2, %19
  %25 = getelementptr inbounds nuw i8, ptr %13, i64 8
  %26 = load i32, ptr %25, align 4, !tbaa !26
  %27 = sdiv i32 %24, %26
  %28 = mul nsw i32 %27, %26
  %.recomposed = srem i32 %24, %26
  %.sroa.2.0.insert.ext = zext i32 %23 to i64
  %.sroa.2.0.insert.shift = shl nuw i64 %.sroa.2.0.insert.ext, 32
  %.sroa.0.0.insert.ext = zext i32 %11 to i64
  %.sroa.0.0.insert.insert = or disjoint i64 %.sroa.2.0.insert.shift, %.sroa.0.0.insert.ext
  %.fca.0.insert = insertvalue { i64, i64 } poison, i64 %.sroa.0.0.insert.insert, 0
  %.sroa.6.8.insert.ext = zext i32 %.recomposed to i64
  %.sroa.6.8.insert.shift = shl nuw i64 %.sroa.6.8.insert.ext, 32
  %.sroa.3.8.insert.ext = zext i32 %27 to i64
  %.sroa.3.8.insert.insert = or disjoint i64 %.sroa.6.8.insert.shift, %.sroa.3.8.insert.ext
  %.fca.1.insert = insertvalue { i64, i64 } %.fca.0.insert, i64 %.sroa.3.8.insert.insert, 1
  ret { i64, i64 } %.fca.1.insert
}